target datalayout = "e-m:e-p270:32:32-p271:32:32-p272:64:64-i64:64-i128:128-f80:128-n8:16:32:64-S128"
target triple = "x86_64-pc-linux-gnu"

%struct.strbuf = type { i64, i64, ptr }
%struct.hashmap = type { ptr, ptr, ptr, i32, i32, i32, i32, i8 }
%struct.index_state = type { ptr, i32, i32, i32, i32, ptr, ptr, ptr, %struct.cache_time, i8, i32, %struct.hashmap, %struct.hashmap, %struct.object_id, ptr, ptr, ptr, ptr, ptr, ptr, ptr }
%struct.cache_time = type { i32, i32 }
%struct.object_id = type { [32 x i8], i32 }
%struct.cache_entry = type { %struct.hashmap_entry, %struct.stat_data, i32, i32, i32, i32, i32, %struct.object_id, [0 x i8] }
%struct.hashmap_entry = type { ptr, i32 }
%struct.stat_data = type { %struct.cache_time, %struct.cache_time, i32, i32, i32, i32, i32 }
%struct.modify_index_context = type { ptr, ptr }

@strbuf_slopbuf = external global [0 x i8], align 1
@.str.14 = private unnamed_addr constant [27 x i8] c"size_t overflow: %lu * %lu\00", align 1
@.str.15 = private unnamed_addr constant [11 x i8] c"./strbuf.h\00", align 1
@.str.16 = private unnamed_addr constant [30 x i8] c"strbuf_setlen() beyond buffer\00", align 1
@.str.17 = private unnamed_addr constant [3 x i8] c"/-\00", align 1

; Function Attrs: inlinehint nounwind uwtable
define internal i64 @st_mult(i64 noundef %0, i64 noundef %1) #5 {
  %3 = alloca i64, align 8
  %4 = alloca i64, align 8
  store i64 %0, ptr %3, align 8, !tbaa !60
  store i64 %1, ptr %4, align 8, !tbaa !60
  %5 = load i64, ptr %3, align 8, !tbaa !60
  %6 = icmp ne i64 %5, 0
  br i1 %6, label %7, label %15

7:                                                ; preds = %2
  %8 = load i64, ptr %4, align 8, !tbaa !60
  %9 = load i64, ptr %3, align 8, !tbaa !60
  %10 = udiv i64 -1, %9
  %11 = icmp ugt i64 %8, %10
  br i1 %11, label %12, label %15

12:                                               ; preds = %7
  %13 = load i64, ptr %3, align 8, !tbaa !60
  %14 = load i64, ptr %4, align 8, !tbaa !60
  call void (ptr, ...) @die(ptr noundef @.str.14, i64 noundef %13, i64 noundef %14) #11
  unreachable

15:                                               ; preds = %7, %2
  %16 = load i64, ptr %3, align 8, !tbaa !60
  %17 = load i64, ptr %4, align 8, !tbaa !60
  %18 = mul i64 %16, %17
  ret i64 %18
}

; Function Attrs: nounwind uwtable
define internal void @set_index_entry(ptr noundef %0, i32 noundef %1, ptr noundef %2) #0 {
  %4 = alloca ptr, align 8
  %5 = alloca i32, align 4
  %6 = alloca ptr, align 8
  store ptr %0, ptr %4, align 8, !tbaa !31
  store i32 %1, ptr %5, align 4, !tbaa !9
  store ptr %2, ptr %6, align 8, !tbaa !55
  br label %7

7:                                                ; preds = %3
  %8 = load i32, ptr %5, align 4, !tbaa !9
  %9 = add nsw i32 %8, 1
  %10 = load ptr, ptr %4, align 8, !tbaa !31
  %11 = getelementptr inbounds nuw %struct.index_state, ptr %10, i32 0, i32 3
  %12 = load i32, ptr %11, align 8, !tbaa !74
  %13 = icmp ugt i32 %9, %12
  br i1 %13, label %14, label %50

14:                                               ; preds = %7
  %15 = load ptr, ptr %4, align 8, !tbaa !31
  %16 = getelementptr inbounds nuw %struct.index_state, ptr %15, i32 0, i32 3
  %17 = load i32, ptr %16, align 8, !tbaa !74
  %18 = add i32 %17, 16
  %19 = mul i32 %18, 3
  %20 = udiv i32 %19, 2
  %21 = load i32, ptr %5, align 4, !tbaa !9
  %22 = add nsw i32 %21, 1
  %23 = icmp ult i32 %20, %22
  br i1 %23, label %24, label %29

24:                                               ; preds = %14
  %25 = load i32, ptr %5, align 4, !tbaa !9
  %26 = add nsw i32 %25, 1
  %27 = load ptr, ptr %4, align 8, !tbaa !31
  %28 = getelementptr inbounds nuw %struct.index_state, ptr %27, i32 0, i32 3
  store i32 %26, ptr %28, align 8, !tbaa !74
  br label %38

29:                                               ; preds = %14
  %30 = load ptr, ptr %4, align 8, !tbaa !31
  %31 = getelementptr inbounds nuw %struct.index_state, ptr %30, i32 0, i32 3
  %32 = load i32, ptr %31, align 8, !tbaa !74
  %33 = add i32 %32, 16
  %34 = mul i32 %33, 3
  %35 = udiv i32 %34, 2
  %36 = load ptr, ptr %4, align 8, !tbaa !31
  %37 = getelementptr inbounds nuw %struct.index_state, ptr %36, i32 0, i32 3
  store i32 %35, ptr %37, align 8, !tbaa !74
  br label %38

38:                                               ; preds = %29, %24
  %39 = load ptr, ptr %4, align 8, !tbaa !31
  %40 = getelementptr inbounds nuw %struct.index_state, ptr %39, i32 0, i32 0
  %41 = load ptr, ptr %40, align 8, !tbaa !54
  %42 = load ptr, ptr %4, align 8, !tbaa !31
  %43 = getelementptr inbounds nuw %struct.index_state, ptr %42, i32 0, i32 3
  %44 = load i32, ptr %43, align 8, !tbaa !74
  %45 = zext i32 %44 to i64
  %46 = call i64 @st_mult(i64 noundef 8, i64 noundef %45)
  %47 = call ptr @xrealloc(ptr noundef %41, i64 noundef %46)
  %48 = load ptr, ptr %4, align 8, !tbaa !31
  %49 = getelementptr inbounds nuw %struct.index_state, ptr %48, i32 0, i32 0
  store ptr %47, ptr %49, align 8, !tbaa !54
  br label %50

50:                                               ; preds = %38, %7
  br label %51

51:                                               ; preds = %50
  %52 = load ptr, ptr %6, align 8, !tbaa !55
  %53 = load ptr, ptr %4, align 8, !tbaa !31
  %54 = getelementptr inbounds nuw %struct.index_state, ptr %53, i32 0, i32 0
  %55 = load ptr, ptr %54, align 8, !tbaa !54
  %56 = load i32, ptr %5, align 4, !tbaa !9
  %57 = sext i32 %56 to i64
  %58 = getelementptr inbounds ptr, ptr %55, i64 %57
  store ptr %52, ptr %58, align 8, !tbaa !55
  %59 = load ptr, ptr %4, align 8, !tbaa !31
  %60 = load ptr, ptr %6, align 8, !tbaa !55
  call void @add_name_hash(ptr noundef %59, ptr noundef %60)
  ret void
}

; Function Attrs: inlinehint nounwind uwtable
define internal void @strbuf_setlen(ptr noundef %0, i64 noundef %1) #5 {
  %3 = alloca ptr, align 8
  %4 = alloca i64, align 8
  store ptr %0, ptr %3, align 8, !tbaa !85
  store i64 %1, ptr %4, align 8, !tbaa !60
  %5 = load i64, ptr %4, align 8, !tbaa !60
  %6 = load ptr, ptr %3, align 8, !tbaa !85
  %7 = getelementptr inbounds nuw %struct.strbuf, ptr %6, i32 0, i32 0
  %8 = load i64, ptr %7, align 8, !tbaa !87
  %9 = icmp ne i64 %8, 0
  br i1 %9, label %10, label %15

10:                                               ; preds = %2
  %11 = load ptr, ptr %3, align 8, !tbaa !85
  %12 = getelementptr inbounds nuw %struct.strbuf, ptr %11, i32 0, i32 0
  %13 = load i64, ptr %12, align 8, !tbaa !87
  %14 = sub i64 %13, 1
  br label %16

15:                                               ; preds = %2
  br label %16

16:                                               ; preds = %15, %10
  %17 = phi i64 [ %14, %10 ], [ 0, %15 ]
  %18 = icmp ugt i64 %5, %17
  br i1 %18, label %19, label %20

19:                                               ; preds = %16
  call void (ptr, i32, ptr, ...) @BUG_fl(ptr noundef @.str.15, i32 noundef 167, ptr noundef @.str.16) #11
  unreachable

20:                                               ; preds = %16
  %21 = load i64, ptr %4, align 8, !tbaa !60
  %22 = load ptr, ptr %3, align 8, !tbaa !85
  %23 = getelementptr inbounds nuw %struct.strbuf, ptr %22, i32 0, i32 1
  store i64 %21, ptr %23, align 8, !tbaa !72
  %24 = load ptr, ptr %3, align 8, !tbaa !85
  %25 = getelementptr inbounds nuw %struct.strbuf, ptr %24, i32 0, i32 2
  %26 = load ptr, ptr %25, align 8, !tbaa !70
  %27 = icmp ne ptr %26, @strbuf_slopbuf
  br i1 %27, label %28, label %34

28:                                               ; preds = %20
  %29 = load ptr, ptr %3, align 8, !tbaa !85
  %30 = getelementptr inbounds nuw %struct.strbuf, ptr %29, i32 0, i32 2
  %31 = load ptr, ptr %30, align 8, !tbaa !70
  %32 = load i64, ptr %4, align 8, !tbaa !60
  %33 = getelementptr inbounds nuw i8, ptr %31, i64 %32
  store i8 0, ptr %33, align 1, !tbaa !84
  br label %35

34:                                               ; preds = %20
  br label %35

35:                                               ; preds = %34, %28
  ret void
}

; Function Attrs: inlinehint nounwind uwtable
define internal void @strbuf_addstr(ptr noundef %0, ptr noundef %1) #5 {
  %3 = alloca ptr, align 8
  %4 = alloca ptr, align 8
  store ptr %0, ptr %3, align 8, !tbaa !85
  store ptr %1, ptr %4, align 8, !tbaa !59
  %5 = load ptr, ptr %3, align 8, !tbaa !85
  %6 = load ptr, ptr %4, align 8, !tbaa !59
  %7 = load ptr, ptr %4, align 8, !tbaa !59
  %8 = call i64 @strlen(ptr noundef %7) #10
  call void @strbuf_add(ptr noundef %5, ptr noundef %6, i64 noundef %8)
  ret void
}

; Function Attrs: nounwind uwtable
define internal i32 @add_path_to_index(ptr noundef %0, ptr noundef %1, ptr noundef %2, i32 noundef %3, ptr noundef %4) #0 {
  %6 = alloca i32, align 4
  %7 = alloca ptr, align 8
  %8 = alloca ptr, align 8
  %9 = alloca ptr, align 8
  %10 = alloca i32, align 4
  %11 = alloca ptr, align 8
  %12 = alloca ptr, align 8
  %13 = alloca ptr, align 8
  %14 = alloca i64, align 8
  %15 = alloca i32, align 4
  %16 = alloca i64, align 8
  %17 = alloca i32, align 4
  store ptr %0, ptr %7, align 8, !tbaa !88
  store ptr %1, ptr %8, align 8, !tbaa !85
  store ptr %2, ptr %9, align 8, !tbaa !59
  store i32 %3, ptr %10, align 4, !tbaa !9
  store ptr %4, ptr %11, align 8, !tbaa !90
  call void @llvm.lifetime.start.p0(i64 8, ptr %12) #9
  %18 = load ptr, ptr %11, align 8, !tbaa !90
  store ptr %18, ptr %12, align 8, !tbaa !91
  call void @llvm.lifetime.start.p0(i64 8, ptr %13) #9
  call void @llvm.lifetime.start.p0(i64 8, ptr %14) #9
  %19 = load ptr, ptr %8, align 8, !tbaa !85
  %20 = getelementptr inbounds nuw %struct.strbuf, ptr %19, i32 0, i32 1
  %21 = load i64, ptr %20, align 8, !tbaa !72
  store i64 %21, ptr %14, align 8, !tbaa !60
  %22 = load i32, ptr %10, align 4, !tbaa !9
  %23 = and i32 %22, 61440
  %24 = icmp eq i32 %23, 16384
  br i1 %24, label %25, label %65

25:                                               ; preds = %5
  call void @llvm.lifetime.start.p0(i64 4, ptr %15) #9
  call void @llvm.lifetime.start.p0(i64 8, ptr %16) #9
  %26 = load ptr, ptr %8, align 8, !tbaa !85
  %27 = getelementptr inbounds nuw %struct.strbuf, ptr %26, i32 0, i32 1
  %28 = load i64, ptr %27, align 8, !tbaa !72
  store i64 %28, ptr %16, align 8, !tbaa !60
  %29 = load ptr, ptr %12, align 8, !tbaa !91
  %30 = getelementptr inbounds nuw %struct.modify_index_context, ptr %29, i32 0, i32 1
  %31 = load ptr, ptr %30, align 8, !tbaa !77
  %32 = icmp ne ptr %31, null
  br i1 %32, label %34, label %33

33:                                               ; preds = %25
  store i32 1, ptr %6, align 4
  store i32 1, ptr %17, align 4
  br label %62

34:                                               ; preds = %25
  %35 = load ptr, ptr %8, align 8, !tbaa !85
  %36 = load ptr, ptr %9, align 8, !tbaa !59
  call void @strbuf_addstr(ptr noundef %35, ptr noundef %36)
  %37 = load ptr, ptr %8, align 8, !tbaa !85
  call void @strbuf_add(ptr noundef %37, ptr noundef @.str.17, i64 noundef 2)
  %38 = load ptr, ptr %8, align 8, !tbaa !85
  %39 = getelementptr inbounds nuw %struct.strbuf, ptr %38, i32 0, i32 2
  %40 = load ptr, ptr %39, align 8, !tbaa !70
  %41 = load ptr, ptr %8, align 8, !tbaa !85
  %42 = getelementptr inbounds nuw %struct.strbuf, ptr %41, i32 0, i32 1
  %43 = load i64, ptr %42, align 8, !tbaa !72
  %44 = trunc i64 %43 to i32
  %45 = load ptr, ptr %12, align 8, !tbaa !91
  %46 = getelementptr inbounds nuw %struct.modify_index_context, ptr %45, i32 0, i32 1
  %47 = load ptr, ptr %46, align 8, !tbaa !77
  %48 = load ptr, ptr %12, align 8, !tbaa !91
  %49 = getelementptr inbounds nuw %struct.modify_index_context, ptr %48, i32 0, i32 0
  %50 = load ptr, ptr %49, align 8, !tbaa !75
  %51 = call i32 @path_matches_pattern_list(ptr noundef %40, i32 noundef %44, ptr noundef null, ptr noundef %15, ptr noundef %47, ptr noundef %50)
  %52 = icmp ne i32 %51, 0
  br i1 %52, label %53, label %56

53:                                               ; preds = %34
  %54 = load ptr, ptr %8, align 8, !tbaa !85
  %55 = load i64, ptr %16, align 8, !tbaa !60
  call void @strbuf_setlen(ptr noundef %54, i64 noundef %55)
  store i32 1, ptr %6, align 4
  store i32 1, ptr %17, align 4
  br label %62

56:                                               ; preds = %34
  %57 = load ptr, ptr %8, align 8, !tbaa !85
  %58 = load ptr, ptr %8, align 8, !tbaa !85
  %59 = getelementptr inbounds nuw %struct.strbuf, ptr %58, i32 0, i32 1
  %60 = load i64, ptr %59, align 8, !tbaa !72
  %61 = sub i64 %60, 1
  call void @strbuf_setlen(ptr noundef %57, i64 noundef %61)
  store i32 0, ptr %17, align 4
  br label %62

62:                                               ; preds = %56, %53, %33
  call void @llvm.lifetime.end.p0(i64 8, ptr %16) #9
  call void @llvm.lifetime.end.p0(i64 4, ptr %15) #9
  %63 = load i32, ptr %17, align 4
  switch i32 %63, label %94 [
    i32 0, label %64
  ]

64:                                               ; preds = %62
  br label %68

65:                                               ; preds = %5
  %66 = load ptr, ptr %8, align 8, !tbaa !85
  %67 = load ptr, ptr %9, align 8, !tbaa !59
  call void @strbuf_addstr(ptr noundef %66, ptr noundef %67)
  br label %68

68:                                               ; preds = %65, %64
  %69 = load ptr, ptr %12, align 8, !tbaa !91
  %70 = getelementptr inbounds nuw %struct.modify_index_context, ptr %69, i32 0, i32 0
  %71 = load ptr, ptr %70, align 8, !tbaa !75
  %72 = load i32, ptr %10, align 4, !tbaa !9
  %73 = load ptr, ptr %7, align 8, !tbaa !88
  %74 = load ptr, ptr %8, align 8, !tbaa !85
  %75 = getelementptr inbounds nuw %struct.strbuf, ptr %74, i32 0, i32 2
  %76 = load ptr, ptr %75, align 8, !tbaa !70
  %77 = call ptr @make_cache_entry(ptr noundef %71, i32 noundef %72, ptr noundef %73, ptr noundef %76, i32 noundef 0, i32 noundef 0)
  store ptr %77, ptr %13, align 8, !tbaa !55
  %78 = load ptr, ptr %13, align 8, !tbaa !55
  %79 = getelementptr inbounds nuw %struct.cache_entry, ptr %78, i32 0, i32 3
  %80 = load i32, ptr %79, align 8, !tbaa !9
  %81 = or i32 %80, 1073758208
  store i32 %81, ptr %79, align 8, !tbaa !9
  %82 = load ptr, ptr %12, align 8, !tbaa !91
  %83 = getelementptr inbounds nuw %struct.modify_index_context, ptr %82, i32 0, i32 0
  %84 = load ptr, ptr %83, align 8, !tbaa !75
  %85 = load ptr, ptr %12, align 8, !tbaa !91
  %86 = getelementptr inbounds nuw %struct.modify_index_context, ptr %85, i32 0, i32 0
  %87 = load ptr, ptr %86, align 8, !tbaa !75
  %88 = getelementptr inbounds nuw %struct.index_state, ptr %87, i32 0, i32 2
  %89 = load i32, ptr %88, align 4, !tbaa !50
  %90 = add i32 %89, 1
  store i32 %90, ptr %88, align 4, !tbaa !50
  %91 = load ptr, ptr %13, align 8, !tbaa !55
  call void @set_index_entry(ptr noundef %84, i32 noundef %89, ptr noundef %91)
  %92 = load ptr, ptr %8, align 8, !tbaa !85
  %93 = load i64, ptr %14, align 8, !tbaa !60
  call void @strbuf_setlen(ptr noundef %92, i64 noundef %93)
  store i32 0, ptr %6, align 4
  store i32 1, ptr %17, align 4
  br label %94

94:                                               ; preds = %68, %62
  call void @llvm.lifetime.end.p0(i64 8, ptr %14) #9
  call void @llvm.lifetime.end.p0(i64 8, ptr %13) #9
  call void @llvm.lifetime.end.p0(i64 8, ptr %12) #9
  %95 = load i32, ptr %6, align 4
  ret i32 %95
}