; Function Attrs: nounwind uwtable
define internal range(i32 0, 2) i32 @add_path_to_index(ptr noundef %0, ptr noundef %1, ptr noundef %2, i32 noundef %3, ptr noundef readonly captures(none) %4) #0 {
  %6 = alloca i32, align 4
  %7 = getelementptr inbounds nuw i8, ptr %1, i64 8
  %8 = load i64, ptr %7, align 8, !tbaa !59
  %9 = and i32 %3, 61440
  %10 = icmp eq i32 %9, 16384
  br i1 %10, label %11, label %41

11:                                               ; preds = %5
  call void @llvm.lifetime.start.p0(i64 4, ptr nonnull %6) #12
  %12 = getelementptr inbounds nuw i8, ptr %4, i64 8
  %13 = load ptr, ptr %12, align 8, !tbaa !73
  %.not = icmp eq ptr %13, null
  br i1 %.not, label %.critedge, label %14

14:                                               ; preds = %11
  %15 = tail call i64 @strlen(ptr noundef nonnull dereferenceable(1) %2) #13
  tail call void @strbuf_add(ptr noundef nonnull %1, ptr noundef nonnull %2, i64 noundef %15) #12
  tail call void @strbuf_add(ptr noundef nonnull %1, ptr noundef nonnull @.str.17, i64 noundef 2) #12
  %16 = getelementptr inbounds nuw i8, ptr %1, i64 16
  %17 = load ptr, ptr %16, align 8, !tbaa !61
  %18 = load i64, ptr %7, align 8, !tbaa !59
  %19 = trunc i64 %18 to i32
  %20 = load ptr, ptr %12, align 8, !tbaa !73
  %21 = load ptr, ptr %4, align 8, !tbaa !71
  %22 = call i32 @path_matches_pattern_list(ptr noundef %17, i32 noundef %19, ptr noundef null, ptr noundef nonnull %6, ptr noundef %20, ptr noundef %21) #12
  %.not30 = icmp eq i32 %22, 0
  br i1 %.not30, label %31, label %23

23:                                               ; preds = %14
  %24 = load i64, ptr %1, align 8, !tbaa !78
  %spec.select.i = call i64 @llvm.usub.sat.i64(i64 %24, i64 1)
  %25 = icmp ugt i64 %8, %spec.select.i
  br i1 %25, label %26, label %27

26:                                               ; preds = %23
  call void (ptr, i32, ptr, ...) @BUG_fl(ptr noundef nonnull @.str.15, i32 noundef 167, ptr noundef nonnull @.str.16) #14
  unreachable

27:                                               ; preds = %23
  store i64 %8, ptr %7, align 8, !tbaa !59
  %28 = load ptr, ptr %16, align 8, !tbaa !61
  %.not9.i = icmp eq ptr %28, @strbuf_slopbuf
  br i1 %.not9.i, label %.critedge, label %29

29:                                               ; preds = %27
  %30 = getelementptr inbounds nuw i8, ptr %28, i64 %8
  store i8 0, ptr %30, align 1, !tbaa !62
  br label %.critedge

31:                                               ; preds = %14
  %32 = load i64, ptr %7, align 8, !tbaa !59
  %33 = add i64 %32, -1
  %34 = load i64, ptr %1, align 8, !tbaa !78
  %spec.select.i31 = call i64 @llvm.usub.sat.i64(i64 %34, i64 1)
  %35 = icmp ugt i64 %33, %spec.select.i31
  br i1 %35, label %36, label %37

36:                                               ; preds = %31
  call void (ptr, i32, ptr, ...) @BUG_fl(ptr noundef nonnull @.str.15, i32 noundef 167, ptr noundef nonnull @.str.16) #14
  unreachable

37:                                               ; preds = %31
  store i64 %33, ptr %7, align 8, !tbaa !59
  %38 = load ptr, ptr %16, align 8, !tbaa !61
  %.not9.i32 = icmp eq ptr %38, @strbuf_slopbuf
  br i1 %.not9.i32, label %strbuf_setlen.exit33, label %39

39:                                               ; preds = %37
  %40 = getelementptr inbounds nuw i8, ptr %38, i64 %33
  store i8 0, ptr %40, align 1, !tbaa !62
  br label %strbuf_setlen.exit33

strbuf_setlen.exit33:                             ; preds = %37, %39
  call void @llvm.lifetime.end.p0(i64 4, ptr nonnull %6) #12
  br label %43

41:                                               ; preds = %5
  %42 = tail call i64 @strlen(ptr noundef nonnull dereferenceable(1) %2) #13
  tail call void @strbuf_add(ptr noundef nonnull %1, ptr noundef nonnull %2, i64 noundef %42) #12
  br label %43

43:                                               ; preds = %strbuf_setlen.exit33, %41
  %44 = load ptr, ptr %4, align 8, !tbaa !71
  %45 = getelementptr inbounds nuw i8, ptr %1, i64 16
  %46 = load ptr, ptr %45, align 8, !tbaa !61
  %47 = call ptr @make_cache_entry(ptr noundef %44, i32 noundef %3, ptr noundef %0, ptr noundef %46, i32 noundef 0, i32 noundef 0) #12
  %48 = getelementptr inbounds nuw i8, ptr %47, i64 56
  %49 = load i32, ptr %48, align 8, !tbaa !28
  %50 = or i32 %49, 1073758208
  store i32 %50, ptr %48, align 8, !tbaa !28
  %51 = load ptr, ptr %4, align 8, !tbaa !71
  %52 = getelementptr inbounds nuw i8, ptr %51, i64 12
  %53 = load i32, ptr %52, align 4, !tbaa !48
  %54 = add i32 %53, 1
  store i32 %54, ptr %52, align 4, !tbaa !48
  %55 = getelementptr inbounds nuw i8, ptr %51, i64 16
  %56 = load i32, ptr %55, align 8, !tbaa !70
  %57 = icmp ugt i32 %54, %56
  %.pre.i = load ptr, ptr %51, align 8, !tbaa !49
  br i1 %57, label %58, label %set_index_entry.exit

58:                                               ; preds = %43
  %59 = mul i32 %56, 3
  %60 = add i32 %59, 48
  %61 = lshr i32 %60, 1
  %..i = call i32 @llvm.umax.i32(i32 %61, i32 %54)
  store i32 %..i, ptr %55, align 8, !tbaa !70
  %62 = zext i32 %..i to i64
  %63 = shl nuw nsw i64 %62, 3
  %64 = call ptr @xrealloc(ptr noundef %.pre.i, i64 noundef %63) #12
  store ptr %64, ptr %51, align 8, !tbaa !49
  br label %set_index_entry.exit

set_index_entry.exit:                             ; preds = %43, %58
  %65 = phi ptr [ %.pre.i, %43 ], [ %64, %58 ]
  %66 = sext i32 %53 to i64
  %67 = getelementptr inbounds ptr, ptr %65, i64 %66
  store ptr %47, ptr %67, align 8, !tbaa !52
  call void @add_name_hash(ptr noundef nonnull %51, ptr noundef nonnull %47) #12
  %68 = load i64, ptr %1, align 8, !tbaa !78
  %spec.select.i34 = call i64 @llvm.usub.sat.i64(i64 %68, i64 1)
  %69 = icmp ugt i64 %8, %spec.select.i34
  br i1 %69, label %70, label %71

70:                                               ; preds = %set_index_entry.exit
  call void (ptr, i32, ptr, ...) @BUG_fl(ptr noundef nonnull @.str.15, i32 noundef 167, ptr noundef nonnull @.str.16) #14
  unreachable

71:                                               ; preds = %set_index_entry.exit
  store i64 %8, ptr %7, align 8, !tbaa !59
  %72 = load ptr, ptr %45, align 8, !tbaa !61
  %.not9.i35 = icmp eq ptr %72, @strbuf_slopbuf
  br i1 %.not9.i35, label %strbuf_setlen.exit36, label %73

73:                                               ; preds = %71
  %74 = getelementptr inbounds nuw i8, ptr %72, i64 %8
  store i8 0, ptr %74, align 1, !tbaa !62
  br label %strbuf_setlen.exit36

.critedge:                                        ; preds = %29, %27, %11
  call void @llvm.lifetime.end.p0(i64 4, ptr nonnull %6) #12
  br label %strbuf_setlen.exit36

strbuf_setlen.exit36:                             ; preds = %73, %71, %.critedge
  %.1 = phi i32 [ 1, %.critedge ], [ 0, %71 ], [ 0, %73 ]
  ret i32 %.1
}